; Function Attrs: mustprogress uwtable
define void @_ZN5boost4urls11params_viewC2ENS_4core17basic_string_viewIcEENS0_13encoding_optsE(ptr noundef nonnull align 8 dereferenceable(51) %0, ptr %1, i64 %2, i24 %3) unnamed_addr #4 align 2 {
  %5 = alloca %"class.boost::urls::params_view", align 8
  %6 = alloca %"class.boost::urls::params_encoded_view", align 8
  %7 = alloca %"class.boost::system::result", align 8
  %8 = alloca %"struct.boost::source_location", align 8
  call void @llvm.lifetime.start.p0(i64 56, ptr nonnull %5) #16
  call void @llvm.lifetime.start.p0(i64 48, ptr nonnull %6) #16
  call void @llvm.lifetime.start.p0(i64 56, ptr nonnull %7) #16
  call void @_ZN5boost4urls11parse_queryENS_4core17basic_string_viewIcEE(ptr dead_on_unwind nonnull writable sret(%"class.boost::system::result") align 8 %7, ptr %1, i64 %2) #16
  call void @llvm.lifetime.start.p0(i64 24, ptr nonnull %8) #16
  store ptr @.str, ptr %8, align 8, !tbaa !3
  %9 = getelementptr inbounds nuw i8, ptr %8, i64 8
  store ptr @.str.1, ptr %9, align 8, !tbaa !9
  %10 = getelementptr inbounds nuw i8, ptr %8, i64 16
  store i32 53, ptr %10, align 8, !tbaa !10
  %11 = getelementptr inbounds nuw i8, ptr %8, i64 20
  store i32 13, ptr %11, align 4, !tbaa !11
  %12 = getelementptr inbounds nuw i8, ptr %7, i64 48
  %13 = load i32, ptr %12, align 8, !tbaa !12, !noalias !17
  %14 = icmp eq i32 %13, 1
  br i1 %14, label %_ZNO5boost6system6resultINS_4urls19params_encoded_viewENS0_10error_codeEE5valueIS3_EENSt9enable_ifIXsr3std21is_move_constructibleIT_EE5valueES3_E4typeERKNS_15source_locationE.exit, label %15

15:                                               ; preds = %4
  call void @_ZN5boost6system26throw_exception_from_errorERKNS0_10error_codeERKNS_15source_locationE(ptr noundef nonnull align 8 dereferenceable(56) %7, ptr noundef nonnull align 8 dereferenceable(24) %8) #17, !noalias !17
  unreachable

_ZNO5boost6system6resultINS_4urls19params_encoded_viewENS0_10error_codeEE5valueIS3_EENSt9enable_ifIXsr3std21is_move_constructibleIT_EE5valueES3_E4typeERKNS_15source_locationE.exit: ; preds = %4
  call void @llvm.memcpy.p0.p0.i64(ptr noundef nonnull align 8 dereferenceable(48) %6, ptr noundef nonnull align 8 dereferenceable(56) %7, i64 48, i1 false)
  call void @_ZNK5boost4urls19params_encoded_viewcvNS0_11params_viewEEv(ptr dead_on_unwind nonnull writable sret(%"class.boost::urls::params_view") align 8 %5, ptr noundef nonnull align 8 dereferenceable(48) %6) #16
  call void @_ZN5boost4urls11params_baseC2ERKNS0_6detail9query_refENS0_13encoding_optsE(ptr noundef nonnull align 8 dereferenceable(51) %0, ptr noundef nonnull align 8 dereferenceable(51) %5, i24 %3) #16
  call void @llvm.lifetime.end.p0(i64 24, ptr nonnull %8) #16
  call void @llvm.lifetime.end.p0(i64 56, ptr nonnull %7) #16
  call void @llvm.lifetime.end.p0(i64 48, ptr nonnull %6) #16
  call void @llvm.lifetime.end.p0(i64 56, ptr nonnull %5) #16
  ret void
}